(lp0
ccopy_reg
_reconstructor
p1
(cghmm
Alphabet
p2
c__builtin__
object
p3
Ntp4
Rp5
(dp6
S'index'
p7
(dp8
I0
I0
sI1
I1
sI2
I2
sI3
I3
sI4
I4
sI5
I5
sI6
I6
sI7
I7
sI8
I8
sI9
I9
sI10
I10
sI11
I11
sI12
I12
sI13
I13
sI14
I14
sI15
I15
sI16
I16
sI17
I17
sI18
I18
sI19
I19
sI20
I20
sI21
I21
sI22
I22
sI23
I23
sI24
I24
sI25
I25
sI26
I26
sI27
I27
sI28
I28
sI29
I29
sI30
I30
sI31
I31
sI32
I32
sI33
I33
sI34
I34
sI35
I35
sI36
I36
sI37
I37
sI38
I38
sI39
I39
sI40
I40
sI41
I41
sI42
I42
sI43
I43
sI44
I44
sI45
I45
sI46
I46
sI47
I47
sI48
I48
sI49
I49
sI50
I50
sI51
I51
sI52
I52
sI53
I53
sI54
I54
sI55
I55
sI56
I56
sI57
I57
sI58
I58
sI59
I59
sI60
I60
sI61
I61
sI62
I62
sI63
I63
ssS'CDataType'
p9
S'int'
p10
sS'_lengthOfCharacters'
p11
NsS'listOfCharacters'
p12
(lp13
I0
aI1
aI2
aI3
aI4
aI5
aI6
aI7
aI8
aI9
aI10
aI11
aI12
aI13
aI14
aI15
aI16
aI17
aI18
aI19
aI20
aI21
aI22
aI23
aI24
aI25
aI26
aI27
aI28
aI29
aI30
aI31
aI32
aI33
aI34
aI35
aI36
aI37
aI38
aI39
aI40
aI41
aI42
aI43
aI44
aI45
aI46
aI47
aI48
aI49
aI50
aI51
aI52
aI53
aI54
aI55
aI56
aI57
aI58
aI59
aI60
aI61
aI62
aI63
asba(lp14
(lp15
F0.8403735531933338
aF0.0482980287436768
aF0.0
aF0.08050576722232661
aF0.03082265084066309
aa(lp16
F0.04856776781003051
aF0.9313998882266208
aF0.0025718189306485053
aF0.008663028353266513
aF0.008797496679433206
aa(lp17
F0.003311258278160639
aF9.27066368843542e-36
aF0.9966887417218393
aF1.661489177871303e-73
aF0.0
aa(lp18
F0.030670049655849217
aF0.02209419270568076
aF0.0
aF0.9024375997293148
aF0.0447981579091529
aa(lp19
F0.03223877315661591
aF4.721781268752864e-09
aF0.0
aF0.07738914907259668
aF0.8903720730490049
aaa(lp20
(lp21
F0.0
aF0.0
aF4.866062015674477e-80
aF0.0
aF0.0
aF0.0
aF0.21486626442360918
aF0.0
aF7.812922975939477e-31
aF0.0
aF0.0
aF0.0
aF0.0
aF0.0
aF0.0
aF4.2671176351008197e-50
aF0.0
aF0.0
aF0.0
aF0.0
aF0.0
aF0.0
aF0.0
aF0.0
aF0.0
aF0.0
aF0.0
aF0.0
aF0.0
aF0.0
aF0.0
aF0.0
aF0.0
aF0.0
aF0.0
aF0.0
aF0.001764876864921811
aF0.0
aF0.0
aF0.0
aF0.6250929282805254
aF0.0
aF0.0
aF0.0
aF0.0
aF0.0
aF0.0
aF0.0
aF0.0
aF0.0
aF0.0
aF4.0817681926441865e-107
aF0.0
aF0.0
aF0.0
aF0.0
aF0.0
aF0.0
aF0.0
aF0.0
aF0.06213590464660068
aF0.09614002578434307
aF0.0
aF0.0
aa(lp22
F0.0
aF0.0
aF0.007299812140627957
aF0.0
aF0.0
aF0.0
aF1.4100119745937396e-24
aF0.0
aF0.08759774569023322
aF0.0
aF0.0
aF0.0
aF0.0
aF0.0
aF0.0
aF0.4528761026681773
aF0.0
aF0.0
aF0.0
aF0.0
aF0.0
aF0.0
aF0.0
aF0.0
aF0.0
aF1.2842290012163822e-180
aF0.0
aF0.0
aF0.0
aF0.0
aF0.0
aF0.0
aF0.0
aF0.0
aF0.0
aF0.0
aF5.666192231471933e-138
aF0.0
aF0.0
aF0.0
aF0.004145747255378119
aF0.0
aF0.0
aF0.0
aF0.0
aF0.0
aF0.0
aF0.0
aF0.0
aF0.0
aF0.03893233141725193
aF0.3941898556012873
aF0.0
aF0.0
aF0.0
aF0.0
aF0.0
aF0.0
aF0.0
aF0.0
aF4.452522373506752e-82
aF0.014958405227043734
aF0.0
aF0.0
aa(lp23
F0.0
aF0.0
aF0.0
aF0.0
aF0.0
aF0.0
aF1.4675350223599113e-173
aF0.0
aF1.0688787428971875e-154
aF0.0
aF0.0
aF0.0
aF0.0
aF0.0
aF0.0
aF1.517141e-317
aF0.0
aF0.0
aF0.0
aF0.0
aF0.0
aF0.0
aF0.0
aF0.0
aF0.0
aF1.0
aF0.0
aF0.0
aF0.0
aF0.0
aF0.0
aF0.0
aF0.0
aF0.0
aF0.0
aF0.0
aF3.4283398295528803e-259
aF0.0
aF0.0
aF0.0
aF8.752512899175257e-157
aF0.0
aF0.0
aF0.0
aF0.0
aF0.0
aF0.0
aF0.0
aF0.0
aF0.0
aF0.0
aF0.0
aF0.0
aF0.0
aF0.0
aF0.0
aF0.0
aF0.0
aF0.0
aF0.0
aF5.5498260867500884e-182
aF3.962718138163369e-179
aF0.0
aF0.0
aa(lp24
F0.0
aF0.0
aF4.241353510580801e-98
aF0.0
aF0.0
aF0.0
aF0.08120237700166241
aF0.0
aF1.3816464578432334e-18
aF0.0
aF0.0
aF0.0
aF0.0
aF0.0
aF0.0
aF0.001469668851235315
aF0.0
aF0.0
aF0.0
aF0.0
aF0.0
aF0.0
aF0.0
aF0.0
aF0.0
aF0.0
aF0.0
aF0.0
aF0.0
aF0.0
aF0.0
aF0.0
aF0.0
aF0.0
aF0.0
aF0.0
aF0.11049850346547942
aF0.0
aF0.0
aF0.0
aF0.007111499879537249
aF0.0
aF0.0
aF0.0
aF0.0
aF0.0
aF0.0
aF0.0
aF0.0
aF0.0
aF0.0
aF3.747300273280124e-118
aF0.0
aF0.0
aF0.0
aF0.0
aF0.0
aF0.0
aF0.0
aF0.0
aF0.7997179437867079
aF7.015376258422618e-09
aF0.0
aF0.0
aa(lp25
F0.0
aF0.0
aF1.4631205914344677e-191
aF0.0
aF0.0
aF0.0
aF0.20172341255424805
aF0.0
aF8.667766077756807e-37
aF0.0
aF0.0
aF0.0
aF0.0
aF0.0
aF0.0
aF1.2695595290470466e-10
aF0.0
aF0.0
aF0.0
aF0.0
aF0.0
aF0.0
aF0.0
aF0.0
aF0.0
aF0.0
aF0.0
aF0.0
aF0.0
aF0.0
aF0.0
aF0.0
aF0.0
aF0.0
aF0.0
aF0.0
aF0.723112701876063
aF0.0
aF0.0
aF0.0
aF1.347580531888976e-51
aF0.0
aF0.0
aF0.0
aF0.0
aF0.0
aF0.0
aF0.0
aF0.0
aF0.0
aF0.0
aF5.235334141587354e-203
aF0.0
aF0.0
aF0.0
aF0.0
aF0.0
aF0.0
aF0.0
aF0.0
aF0.06462820944397069
aF0.010535675998762156
aF0.0
aF0.0
aaa(lp26
F0.1348728369941863
aF0.2182171265365886
aF0.15999999998046951
aF0.35431390821776704
aF0.13259612827098924
aa.